; Function Attrs: mustprogress uwtable
define internal fastcc noundef ptr @_ZN7rocksdb12_GLOBAL__N_130NewBuiltinFilterPolicyWithBitsINS_17BloomFilterPolicyEEEPT_RKNSt7__cxx1112basic_stringIcSt11char_traitsIcESaIcEEE(ptr noundef nonnull align 8 dereferenceable(32) %uri) unnamed_addr #3 personality ptr @__gxx_personality_v0 {
entry:
  %vals = alloca %"class.std::vector.105", align 8
  call void @_ZN7rocksdb11StringSplitERKNSt7__cxx1112basic_stringIcSt11char_traitsIcESaIcEEEc(ptr nonnull sret(%"class.std::vector.105") align 8 %vals, ptr noundef nonnull align 8 dereferenceable(32) %uri, i8 noundef signext 58)
  %0 = load ptr, ptr %vals, align 8
  %add.ptr.i = getelementptr inbounds i8, ptr %0, i64 32
  %call1 = invoke noundef double @_ZN7rocksdb11ParseDoubleERKNSt7__cxx1112basic_stringIcSt11char_traitsIcESaIcEEE(ptr noundef nonnull align 8 dereferenceable(32) %add.ptr.i)
          to label %invoke.cont unwind label %lpad

invoke.cont:                                      ; preds = %entry
  %call3 = invoke noalias noundef nonnull dereferenceable(64) ptr @_Znwm(i64 noundef 64) #34
          to label %invoke.cont2 unwind label %lpad

invoke.cont2:                                     ; preds = %invoke.cont
  invoke void @_ZN7rocksdb17BloomFilterPolicyC1Ed(ptr noundef nonnull align 8 dereferenceable(64) %call3, double noundef %call1)
          to label %invoke.cont5 unwind label %lpad4

invoke.cont5:                                     ; preds = %invoke.cont2
  %1 = load ptr, ptr %vals, align 8
  %_M_finish.i = getelementptr inbounds i8, ptr %vals, i64 8
  %2 = load ptr, ptr %_M_finish.i, align 8
  %cmp.not3.i.i.i.i = icmp eq ptr %1, %2
  br i1 %cmp.not3.i.i.i.i, label %invoke.cont.i, label %for.body.i.i.i.i

for.body.i.i.i.i:                                 ; preds = %invoke.cont5, %for.body.i.i.i.i
  %__first.addr.04.i.i.i.i = phi ptr [ %incdec.ptr.i.i.i.i, %for.body.i.i.i.i ], [ %1, %invoke.cont5 ]
  call void @_ZNSt7__cxx1112basic_stringIcSt11char_traitsIcESaIcEED1Ev(ptr noundef nonnull align 8 dereferenceable(32) %__first.addr.04.i.i.i.i) #32
  %incdec.ptr.i.i.i.i = getelementptr inbounds i8, ptr %__first.addr.04.i.i.i.i, i64 32
  %cmp.not.i.i.i.i = icmp eq ptr %incdec.ptr.i.i.i.i, %2
  br i1 %cmp.not.i.i.i.i, label %invoke.contthread-pre-split.i, label %for.body.i.i.i.i, !llvm.loop !164

invoke.contthread-pre-split.i:                    ; preds = %for.body.i.i.i.i
  %.pr.i = load ptr, ptr %vals, align 8
  br label %invoke.cont.i

invoke.cont.i:                                    ; preds = %invoke.contthread-pre-split.i, %invoke.cont5
  %3 = phi ptr [ %.pr.i, %invoke.contthread-pre-split.i ], [ %1, %invoke.cont5 ]
  %tobool.not.i.i.i = icmp eq ptr %3, null
  br i1 %tobool.not.i.i.i, label %_ZNSt6vectorINSt7__cxx1112basic_stringIcSt11char_traitsIcESaIcEEESaIS5_EED2Ev.exit, label %if.then.i.i.i

if.then.i.i.i:                                    ; preds = %invoke.cont.i
  call void @_ZdlPv(ptr noundef nonnull %3) #31
  br label %_ZNSt6vectorINSt7__cxx1112basic_stringIcSt11char_traitsIcESaIcEEESaIS5_EED2Ev.exit

_ZNSt6vectorINSt7__cxx1112basic_stringIcSt11char_traitsIcESaIcEEESaIS5_EED2Ev.exit: ; preds = %invoke.cont.i, %if.then.i.i.i
  ret ptr %call3

lpad:                                             ; preds = %invoke.cont, %entry
  %4 = landingpad { ptr, i32 }
          cleanup
  br label %ehcleanup

lpad4:                                            ; preds = %invoke.cont2
  %5 = landingpad { ptr, i32 }
          cleanup
  call void @_ZdlPv(ptr noundef nonnull %call3) #31
  br label %ehcleanup

ehcleanup:                                        ; preds = %lpad4, %lpad
  %.pn = phi { ptr, i32 } [ %5, %lpad4 ], [ %4, %lpad ]
  call void @_ZNSt6vectorINSt7__cxx1112basic_stringIcSt11char_traitsIcESaIcEEESaIS5_EED2Ev(ptr noundef nonnull align 8 dereferenceable(24) %vals) #32
  resume { ptr, i32 } %.pn
}